; Function Attrs: mustprogress nofree norecurse nosync nounwind willreturn memory(argmem: write) uwtable
define noundef i32 @RIPEMD160_Init(ptr noundef writeonly captures(none) initializes((0, 96)) %0) local_unnamed_addr #5 {
  %2 = getelementptr inbounds nuw i8, ptr %0, i64 20
  tail call void @llvm.memset.p0.i64(ptr noundef nonnull align 4 dereferenceable(96) %2, i8 0, i64 76, i1 false)
  store i32 1732584193, ptr %0, align 4, !tbaa !10
  %3 = getelementptr inbounds nuw i8, ptr %0, i64 4
  store i32 -271733879, ptr %3, align 4, !tbaa !11
  %4 = getelementptr inbounds nuw i8, ptr %0, i64 8
  store i32 -1732584194, ptr %4, align 4, !tbaa !12
  %5 = getelementptr inbounds nuw i8, ptr %0, i64 12
  store i32 271733878, ptr %5, align 4, !tbaa !13
  %6 = getelementptr inbounds nuw i8, ptr %0, i64 16
  store i32 -1009589776, ptr %6, align 4, !tbaa !14
  ret i32 1
}